; Function Attrs: nounwind uwtable
define nonnull ptr @l_Int_Linear_Poly_isUnsatLe___boxed(ptr noundef %0) local_unnamed_addr #1 {
  %2 = ptrtoint ptr %0 to i64
  %3 = and i64 %2, 1
  %.not.i.i = icmp eq i64 %3, 0
  br i1 %.not.i.i, label %7, label %4

4:                                                ; preds = %1
  %5 = lshr i64 %2, 1
  %6 = trunc i64 %5 to i32
  br label %lean_obj_tag.exit.i

7:                                                ; preds = %1
  %8 = getelementptr i8, ptr %0, i64 4
  %.val.i.i = load i32, ptr %8, align 4
  %9 = lshr i32 %.val.i.i, 24
  br label %lean_obj_tag.exit.i

lean_obj_tag.exit.i:                              ; preds = %7, %4
  %.0.i.i = phi i32 [ %6, %4 ], [ %9, %7 ]
  %10 = icmp eq i32 %.0.i.i, 0
  br i1 %10, label %11, label %l_Int_Linear_Poly_isUnsatLe.exit

11:                                               ; preds = %lean_obj_tag.exit.i
  %12 = getelementptr inbounds nuw i8, ptr %0, i64 8
  %13 = load ptr, ptr %12, align 8, !tbaa !11
  %14 = load ptr, ptr @l_Int_Linear_instInhabitedExpr___closed__1, align 8, !tbaa !11
  %15 = ptrtoint ptr %14 to i64
  %16 = and i64 %15, 1
  %.not.i.i.i = icmp eq i64 %16, 0
  br i1 %.not.i.i.i, label %.critedge.i.i.i, label %17, !prof !4

17:                                               ; preds = %11
  %18 = ptrtoint ptr %13 to i64
  %19 = and i64 %18, 1
  %.not7.i.i.i = icmp eq i64 %19, 0
  br i1 %.not7.i.i.i, label %.critedge.i.i.i, label %20, !prof !4

20:                                               ; preds = %17
  %21 = lshr i64 %15, 1
  %22 = trunc i64 %21 to i32
  %23 = lshr i64 %18, 1
  %24 = trunc i64 %23 to i32
  %25 = icmp slt i32 %22, %24
  br label %lean_int_dec_lt.exit.i

.critedge.i.i.i:                                  ; preds = %17, %11
  %26 = tail call zeroext i1 @lean_int_big_lt(ptr noundef %14, ptr noundef %13) #5
  br label %lean_int_dec_lt.exit.i

lean_int_dec_lt.exit.i:                           ; preds = %.critedge.i.i.i, %20
  %.0.i.i.i = phi i1 [ %25, %20 ], [ %26, %.critedge.i.i.i ]
  %27 = select i1 %.0.i.i.i, i64 3, i64 1
  br label %l_Int_Linear_Poly_isUnsatLe.exit

l_Int_Linear_Poly_isUnsatLe.exit:                 ; preds = %lean_obj_tag.exit.i, %lean_int_dec_lt.exit.i
  %.0.i = phi i64 [ %27, %lean_int_dec_lt.exit.i ], [ 1, %lean_obj_tag.exit.i ]
  br i1 %.not.i.i, label %28, label %lean_dec.exit

28:                                               ; preds = %l_Int_Linear_Poly_isUnsatLe.exit
  %29 = load i32, ptr %0, align 4, !tbaa !6
  %30 = icmp sgt i32 %29, 1
  br i1 %30, label %31, label %33, !prof !5

31:                                               ; preds = %28
  %32 = add nsw i32 %29, -1
  store i32 %32, ptr %0, align 4, !tbaa !6
  br label %lean_dec.exit

33:                                               ; preds = %28
  %.not.i = icmp eq i32 %29, 0
  br i1 %.not.i, label %lean_dec.exit, label %34

34:                                               ; preds = %33
  tail call void @lean_dec_ref_cold(ptr noundef nonnull %0) #5
  br label %lean_dec.exit

lean_dec.exit:                                    ; preds = %34, %33, %31, %l_Int_Linear_Poly_isUnsatLe.exit
  %35 = inttoptr i64 %.0.i to ptr
  ret ptr %35
}